; Function Attrs: mustprogress nounwind uwtable
define hidden noundef zeroext i1 @_ZN17BarrierSetNMethod21nmethod_entry_barrierEP7nmethod(ptr noundef nonnull align 8 dereferenceable(12) %0, ptr noundef %1) unnamed_addr #0 align 2 {
  %3 = alloca %class.OopKeepAliveClosure, align 8
  %4 = tail call noundef i32 @_ZN17BarrierSetNMethod11guard_valueEP7nmethod(ptr noundef nonnull align 8 dereferenceable(12) %0, ptr noundef %1) #8
  %5 = load ptr, ptr %0, align 8
  %6 = getelementptr inbounds i8, ptr %5, i64 16
  %7 = load ptr, ptr %6, align 8
  %8 = tail call noundef ptr %7(ptr noundef nonnull align 8 dereferenceable(12) %0) #8
  %9 = load i32, ptr %8, align 4
  %.not = icmp eq i32 %4, %9
  br i1 %.not, label %16, label %10

10:                                               ; preds = %2
  store ptr getelementptr inbounds inrange(-16, 16) (i8, ptr @_ZTVZN17BarrierSetNMethod21nmethod_entry_barrierEP7nmethodE19OopKeepAliveClosure, i64 16), ptr %3, align 8
  call void @_ZN7nmethod7oops_doEP10OopClosureb(ptr noundef nonnull align 8 dereferenceable(214) %1, ptr noundef nonnull %3, i1 noundef zeroext false) #8
  call void @_ZN7nmethod22mark_as_maybe_on_stackEv(ptr noundef nonnull align 8 dereferenceable(214) %1) #8
  %11 = load ptr, ptr %0, align 8
  %12 = getelementptr inbounds i8, ptr %11, i64 16
  %13 = load ptr, ptr %12, align 8
  %14 = call noundef ptr %13(ptr noundef nonnull align 8 dereferenceable(12) %0) #8
  %15 = load i32, ptr %14, align 4
  call void @_ZN17BarrierSetNMethod15set_guard_valueEP7nmethodi(ptr noundef nonnull align 8 dereferenceable(12) %0, ptr noundef nonnull %1, i32 noundef %15) #8
  br label %16

16:                                               ; preds = %2, %10
  ret i1 true
}